Certificate:
    Data:
        Version: 3 (0x2)
        Serial Number:
            70:4d:03:3e:e9:e1:1e:43:4b:f2:92:98:57:54:c8:05
        Signature Algorithm: sha256WithRSAEncryption
        Issuer: CN=saroot
        Validity
            Not Before: May 30 16:03:51 2023 GMT
            Not After : Sep  1 16:03:51 2025 GMT
        Subject: C=TW, ST=TW, L=TAINAN, O=NCKU, CN=f84091087
        Subject Public Key Info:
            Public Key Algorithm: rsaEncryption
                RSA Public-Key: (2048 bit)
                Modulus:
                    00:c9:d9:dd:d3:81:d2:81:d4:e7:5f:0f:8e:57:e7:
                    23:1b:91:f9:57:1b:86:75:14:40:75:de:64:c8:86:
                    51:2f:89:c6:40:a7:a2:af:56:5a:2b:ca:54:95:07:
                    43:f5:c4:40:b7:f5:55:ab:c8:99:b1:92:4c:8d:a1:
                    45:55:60:ac:8d:7c:33:6f:ff:0a:b5:39:0d:db:27:
                    28:fb:6f:35:84:be:a8:7a:95:70:9a:5c:0a:88:0e:
                    f8:e6:79:05:a7:83:9e:81:b8:4e:8b:b2:ee:76:05:
                    ad:f0:b4:21:1f:44:cd:04:2f:65:b0:52:33:90:a8:
                    36:d0:89:f7:2f:74:44:95:4c:91:6f:2a:2e:3b:af:
                    b1:8f:5d:5b:e1:3f:38:c7:9f:79:d6:b9:fc:4b:b4:
                    3c:1b:af:db:a9:fe:ee:0b:e0:2e:bf:29:51:b6:05:
                    70:f2:78:64:f4:e0:82:5e:b1:53:81:5f:42:2b:e6:
                    fc:00:62:c8:97:3d:77:10:62:ad:c2:a7:88:2f:9a:
                    13:d0:bb:fc:8c:c7:1a:5f:c1:d4:da:3b:b4:2d:e3:
                    5b:bb:07:7b:75:e0:00:2a:41:58:9a:ce:de:1b:60:
                    2f:8e:20:62:b7:0d:cc:0e:a9:ea:7f:1a:93:4b:59:
                    09:97:c0:4a:be:7b:ac:ba:33:78:b9:b6:ee:7a:14:
                    04:cf
                Exponent: 65537 (0x10001)
        X509v3 extensions:
            X509v3 CRL Distribution Points: 

                Full Name:
                  URI:http://ca.sa/crl

            Authority Information Access: 
                CA Issuers - URI:http://ca.sa/ca

            X509v3 Basic Constraints: 
                CA:TRUE
            X509v3 Subject Key Identifier: 
                2F:40:97:97:0A:5B:48:86:C5:C2:A7:CA:4E:36:F1:21:67:E3:D1:5B
            X509v3 Authority Key Identifier: 
                keyid:8A:69:2A:24:A2:32:00:96:35:B4:15:79:67:24:66:B2:50:D6:EA:09
                DirName:/CN=saroot
                serial:30:7D:C5:26:23:43:C2:B1:FE:3F:D6:5F:1B:CE:EA:9F:1E:CA:BB:E0

            X509v3 Key Usage: 
                Certificate Sign, CRL Sign
    Signature Algorithm: sha256WithRSAEncryption
         3c:51:14:35:f6:e4:5f:e0:d1:96:b1:37:4f:7a:9d:41:2b:f9:
         97:4d:7b:5d:bf:bb:f3:3a:48:0b:78:e8:01:b8:e9:23:59:58:
         7d:84:c0:fd:e2:64:4e:28:7f:9b:e3:4b:51:05:24:86:2a:b1:
         90:cf:33:f3:c5:3d:8c:87:93:b7:e6:52:88:ae:7a:6b:de:09:
         a3:1f:21:dc:63:ff:dd:d8:bb:c9:f9:e5:89:d5:e7:90:a9:51:
         43:8f:a1:32:6e:00:39:07:03:7a:e3:8e:c8:5b:0d:ec:01:75:
         19:96:65:b9:12:24:18:ea:6d:83:ba:b6:70:12:1e:f0:00:90:
         77:e6:7a:7d:ef:50:b2:fd:f4:bd:95:3a:ea:cf:06:ef:6a:21:
         e2:18:c2:bc:38:c9:c4:22:67:3e:93:4d:57:73:15:6f:c2:1a:
         d5:a2:57:28:e3:6a:be:42:36:7b:90:5a:49:3a:5f:c2:a8:c2:
         95:cc:6e:32:a3:9a:51:1b:36:80:99:fe:33:7c:33:9c:c4:31:
         f6:30:8b:45:91:ef:66:0b:bf:4e:22:3c:3b:71:e9:e1:10:94:
         82:5e:ed:5e:6b:61:c7:66:c6:e8:67:f3:be:85:44:d6:51:38:
         7a:87:ba:e5:54:88:5f:ed:8b:5c:e8:74:68:69:1c:2a:1c:39:
         82:d3:ad:93
-----BEGIN CERTIFICATE-----
MIIDxTCCAq2gAwIBAgIQcE0DPunhHkNL8pKYV1TIBTANBgkqhkiG9w0BAQsFADAR
MQ8wDQYDVQQDDAZzYXJvb3QwHhcNMjMwNTMwMTYwMzUxWhcNMjUwOTAxMTYwMzUx
WjBOMQswCQYDVQQGEwJUVzELMAkGA1UECAwCVFcxDzANBgNVBAcMBlRBSU5BTjEN
MAsGA1UECgwETkNLVTESMBAGA1UEAwwJZjg0MDkxMDg3MIIBIjANBgkqhkiG9w0B
AQEFAAOCAQ8AMIIBCgKCAQEAydnd04HSgdTnXw+OV+cjG5H5VxuGdRRAdd5kyIZR
L4nGQKeir1ZaK8pUlQdD9cRAt/VVq8iZsZJMjaFFVWCsjXwzb/8KtTkN2yco+281
hL6oepVwmlwKiA745nkFp4OegbhOi7LudgWt8LQhH0TNBC9lsFIzkKg20In3L3RE
lUyRbyouO6+xj11b4T84x5951rn8S7Q8G6/bqf7uC+AuvylRtgVw8nhk9OCCXrFT
gV9CK+b8AGLIlz13EGKtwqeIL5oT0Lv8jMcaX8HU2ju0LeNbuwd7deAAKkFYms7e
G2AvjiBitw3MDqnqfxqTS1kJl8BKvnusujN4ubbuehQEzwIDAQABo4HbMIHYMCEG
A1UdHwQaMBgwFqAUoBKGEGh0dHA6Ly9jYS5zYS9jcmwwKwYIKwYBBQUHAQEEHzAd
MBsGCCsGAQUFBzAChg9odHRwOi8vY2Euc2EvY2EwDAYDVR0TBAUwAwEB/zAdBgNV
HQ4EFgQUL0CXlwpbSIbFwqfKTjbxIWfj0VswTAYDVR0jBEUwQ4AUimkqJKIyAJY1
tBV5ZyRmslDW6gmhFaQTMBExDzANBgNVBAMMBnNhcm9vdIIUMH3FJiNDwrH+P9Zf
G87qnx7Ku+AwCwYDVR0PBAQDAgEGMA0GCSqGSIb3DQEBCwUAA4IBAQA8URQ19uRf
4NGWsTdPep1BK/mXTXtdv7vzOkgLeOgBuOkjWVh9hMD94mROKH+b40tRBSSGKrGQ
zzPzxT2Mh5O35lKIrnpr3gmjHyHcY//d2LvJ+eWJ1eeQqVFDj6EybgA5BwN6447I
Ww3sAXUZlmW5EiQY6m2DurZwEh7wAJB35np971Cy/fS9lTrqzwbvaiHiGMK8OMnE
Imc+k01XcxVvwhrVolco42q+QjZ7kFpJOl/CqMKVzG4yo5pRGzaAmf4zfDOcxDH2
MItFke9mC79OIjw7cenhEJSCXu1ea2HHZsboZ/O+hUTWUTh6h7rlVIhf7Ytc6HRo
aRwqHDmC062T
-----END CERTIFICATE-----

-----BEGIN CERTIFICATE-----
MIIDPDCCAiSgAwIBAgIUMH3FJiNDwrH+P9ZfG87qnx7Ku+AwDQYJKoZIhvcNAQEL
BQAwETEPMA0GA1UEAwwGc2Fyb290MB4XDTIzMDUxNTE0MzcwNVoXDTMzMDUxMjE0
MzcwNVowETEPMA0GA1UEAwwGc2Fyb290MIIBIjANBgkqhkiG9w0BAQEFAAOCAQ8A
MIIBCgKCAQEAy7FDB1mzxK7kVOnFdIlZEZ3rnepTnR1vtB5RRjfBl2qRqpW0FMVk
sWjWK7u645DPEA2bnAzgH0rS57nThGMiVD6e798T4IEjflY1XSZABujMhnCJlq2C
l1S08c0te/yvh1Dm2Kw6kS1BTrAfeqX7MILLklPu0pCGI4xg0p4J/mHdT49bhcm/
XgFDhXE/Tw29M9WlPjJomXaX6I5hL/LL8evzpxmVjCH6xulmuaumb8D3uER/5Fs1
HxiTD6n3K9bIhaKIOi6cx17NRAZAeBL+5IAhwKUFKut5oHy1HsQEjxxi63szx6OE
gjpQWIlbJxQtj3Z8iwf7ZD0NY8QvfEyEuQIDAQABo4GLMIGIMAwGA1UdEwQFMAMB
Af8wHQYDVR0OBBYEFIppKiSiMgCWNbQVeWckZrJQ1uoJMEwGA1UdIwRFMEOAFIpp
KiSiMgCWNbQVeWckZrJQ1uoJoRWkEzARMQ8wDQYDVQQDDAZzYXJvb3SCFDB9xSYj
Q8Kx/j/WXxvO6p8eyrvgMAsGA1UdDwQEAwIBBjANBgkqhkiG9w0BAQsFAAOCAQEA
IIUy4tI1fMpiTP3F6J47n0KYlR2zrQPha1zwLxFOr8eoNe9zxedrhl4WV3Igpj2c
z9DzHmbr2kiTa8Do1dNdanw4FW0JO3SIab9opAbEvzCwQlYePxBuomnZraJumSzS
jJuDPiIXa5F+B4D8w3CllCJsOC5hiudirMXSNf9DbbvPtppkImbBh9M1GM9UrkLX
nQs9gMPUrCrtJRKuj6rnHwdvKYA09JY4/6w/ekMRPXwKaaAk7+ZRG7ReF3aBQI5W
lCDgP6VmlnlHL3P6IbfHUmnrKCVVVXk4fQSXw7LdMOLoE3pnPdSlZngylhFCYvD9
9tCHSqD9ct51nnzCcpOupQ==
-----END CERTIFICATE-----
