Certificate:
    Data:
        Version: 3 (0x2)
        Serial Number:
            5e:d6:b5:83:f6:fd:db:5d:2d:c7:12:cb:f7:f0:25:e7:e1:f4:69:52
        Signature Algorithm: sha256WithRSAEncryption
        Issuer: C=TW, ST=TW, L=TAINAN, O=NCKU, CN=f84091087
        Validity
            Not Before: Jun  5 09:19:31 2023 GMT
            Not After : Jun  4 09:19:31 2026 GMT
        Subject: C=TW, ST=TW, O=NCKU, CN=f84091087.sa
        Subject Public Key Info:
            Public Key Algorithm: rsaEncryption
                RSA Public-Key: (2048 bit)
                Modulus:
                    00:a7:dc:1c:cb:82:a5:f5:40:80:e0:27:30:cb:c6:
                    05:c7:43:22:52:67:36:c4:31:26:f2:73:fd:b6:66:
                    8c:92:92:9f:0a:c5:e0:a1:6f:c2:bd:a2:0e:c6:c1:
                    7a:96:39:10:25:13:fb:a6:f4:f3:85:34:eb:26:f6:
                    a6:6e:c1:07:df:68:25:5b:57:63:f9:e1:fa:a2:28:
                    15:fd:a6:ca:e4:5c:b8:76:8b:74:6a:52:20:c0:ea:
                    05:09:c1:d9:e5:22:91:95:ec:85:29:dc:5d:65:ba:
                    89:8d:bd:77:79:d5:cf:3f:2b:b9:58:9e:e9:2c:2c:
                    64:53:5e:8d:38:47:bc:09:36:4d:bc:0b:60:43:2f:
                    a1:6e:42:76:9a:8d:a4:32:54:59:cd:1a:36:0c:e1:
                    a6:ac:55:d8:60:16:e1:23:8b:88:58:de:ac:b3:38:
                    05:ce:3e:82:49:04:23:78:99:01:7e:6a:55:ac:e8:
                    cc:8c:cd:d2:5c:e1:90:55:9b:89:70:1c:b7:69:59:
                    dc:b6:a3:8e:4c:55:b9:56:4b:11:c3:a1:54:58:be:
                    68:ab:92:9c:06:d8:bd:a9:fa:7f:a8:66:75:5b:f7:
                    32:89:de:a9:8a:07:3d:26:83:0e:2d:e8:31:88:6f:
                    98:fa:f7:4b:51:1f:a0:84:b3:39:80:62:9d:18:dc:
                    68:a7
                Exponent: 65537 (0x10001)
        X509v3 extensions:
            X509v3 Basic Constraints: 
                CA:FALSE
            X509v3 Subject Key Identifier: 
                8F:41:B0:15:E1:6B:37:72:92:30:C9:31:54:71:72:B5:19:85:A8:A5
            X509v3 Authority Key Identifier: 
                keyid:2F:40:97:97:0A:5B:48:86:C5:C2:A7:CA:4E:36:F1:21:67:E3:D1:5B
                DirName:/CN=saroot
                serial:70:4D:03:3E:E9:E1:1E:43:4B:F2:92:98:57:54:C8:05

            X509v3 Extended Key Usage: 
                TLS Web Server Authentication
            X509v3 Key Usage: 
                Digital Signature, Key Encipherment
            Authority Information Access: 
                CA Issuers - URI:http://f84091087.sa

            X509v3 Subject Alternative Name: 
                DNS:f84091087.sa
    Signature Algorithm: sha256WithRSAEncryption
         60:96:1b:2d:6b:7f:56:36:52:2e:1b:2c:29:89:55:de:9d:bf:
         90:63:23:9a:2d:09:42:ca:4f:23:24:ad:62:72:74:d9:4b:ce:
         a2:63:38:6b:56:d1:e3:06:92:7e:6c:91:fd:dc:8b:66:de:d7:
         84:95:9e:b3:62:e2:ed:1a:59:66:10:d9:c9:5a:4b:c5:eb:aa:
         70:d8:06:22:eb:f6:60:e6:c5:16:a3:2f:cc:12:72:e5:a8:f3:
         b2:85:fe:9d:ac:f8:37:17:e7:2d:8f:d4:bb:88:63:60:4f:ab:
         76:9d:04:da:23:10:4b:63:30:b9:2d:79:0b:47:ad:6d:17:f3:
         d4:40:29:0d:8f:fb:e2:06:a5:c0:c8:f4:92:23:84:f3:b8:e6:
         fb:75:a2:9f:82:21:1b:5f:a2:89:e4:0d:22:2c:e6:f7:96:aa:
         67:97:92:d8:f9:46:f3:4f:c7:71:03:fd:5f:a2:db:0d:8f:ae:
         b8:4d:5b:46:f8:c9:1b:e8:ce:d0:1a:7b:f2:0e:d6:de:a2:1a:
         24:0b:d4:a1:e2:6e:16:f9:6a:09:e3:15:b7:a9:80:1e:7f:95:
         86:0c:65:70:9c:5e:f1:10:65:94:ae:65:22:54:56:83:6e:a4:
         ad:2b:5c:27:54:63:70:e7:34:13:34:f8:43:8e:b1:9d:8e:fa:
         f6:92:2f:10
-----BEGIN CERTIFICATE-----
MIIEADCCAuigAwIBAgIUXta1g/b9210txxLL9/Al5+H0aVIwDQYJKoZIhvcNAQEL
BQAwTjELMAkGA1UEBhMCVFcxCzAJBgNVBAgMAlRXMQ8wDQYDVQQHDAZUQUlOQU4x
DTALBgNVBAoMBE5DS1UxEjAQBgNVBAMMCWY4NDA5MTA4NzAeFw0yMzA2MDUwOTE5
MzFaFw0yNjA2MDQwOTE5MzFaMEAxCzAJBgNVBAYTAlRXMQswCQYDVQQIDAJUVzEN
MAsGA1UECgwETkNLVTEVMBMGA1UEAwwMZjg0MDkxMDg3LnNhMIIBIjANBgkqhkiG
9w0BAQEFAAOCAQ8AMIIBCgKCAQEAp9wcy4Kl9UCA4Ccwy8YFx0MiUmc2xDEm8nP9
tmaMkpKfCsXgoW/CvaIOxsF6ljkQJRP7pvTzhTTrJvambsEH32glW1dj+eH6oigV
/abK5Fy4dot0alIgwOoFCcHZ5SKRleyFKdxdZbqJjb13edXPPyu5WJ7pLCxkU16N
OEe8CTZNvAtgQy+hbkJ2mo2kMlRZzRo2DOGmrFXYYBbhI4uIWN6sszgFzj6CSQQj
eJkBfmpVrOjMjM3SXOGQVZuJcBy3aVnctqOOTFW5VksRw6FUWL5oq5KcBti9qfp/
qGZ1W/cyid6pigc9JoMOLegxiG+Y+vdLUR+ghLM5gGKdGNxopwIDAQABo4HjMIHg
MAkGA1UdEwQCMAAwHQYDVR0OBBYEFI9BsBXhazdykjDJMVRxcrUZhailMEgGA1Ud
IwRBMD+AFC9Al5cKW0iGxcKnyk428SFn49FboRWkEzARMQ8wDQYDVQQDDAZzYXJv
b3SCEHBNAz7p4R5DS/KSmFdUyAUwEwYDVR0lBAwwCgYIKwYBBQUHAwEwCwYDVR0P
BAQDAgWgMC8GCCsGAQUFBwEBBCMwITAfBggrBgEFBQcwAoYTaHR0cDovL2Y4NDA5
MTA4Ny5zYTAXBgNVHREEEDAOggxmODQwOTEwODcuc2EwDQYJKoZIhvcNAQELBQAD
ggEBAGCWGy1rf1Y2Ui4bLCmJVd6dv5BjI5otCULKTyMkrWJydNlLzqJjOGtW0eMG
kn5skf3ci2be14SVnrNi4u0aWWYQ2claS8XrqnDYBiLr9mDmxRajL8wScuWo87KF
/p2s+DcX5y2P1LuIY2BPq3adBNojEEtjMLkteQtHrW0X89RAKQ2P++IGpcDI9JIj
hPO45vt1op+CIRtfoonkDSIs5veWqmeXktj5RvNPx3ED/V+i2w2PrrhNW0b4yRvo
ztAae/IO1t6iGiQL1KHibhb5agnjFbepgB5/lYYMZXCcXvEQZZSuZSJUVoNupK0r
XCdUY3DnNBM0+EOOsZ2O+vaSLxA=
-----END CERTIFICATE-----
